target datalayout = "e-m:e-p270:32:32-p271:32:32-p272:64:64-i64:64-i128:128-f80:128-n8:16:32:64-S128"
target triple = "x86_64-pc-linux-gnu"

%struct.RangeTblEntry = type { i32, ptr, ptr, i32, i32, i8, i8, i32, i32, ptr, ptr, i8, i32, i32, ptr, ptr, ptr, ptr, ptr, i8, ptr, ptr, ptr, i32, i8, ptr, ptr, ptr, ptr, double, ptr, i8, i8, ptr }

; Function Attrs: nounwind uwtable
define dso_local zeroext i1 @range_table_entry_walker_impl(ptr noundef %0, ptr noundef %1, ptr noundef %2, i32 noundef %3) #0 {
  %5 = alloca i1, align 1
  %6 = alloca ptr, align 8
  %7 = alloca ptr, align 8
  %8 = alloca ptr, align 8
  %9 = alloca i32, align 4
  store ptr %0, ptr %6, align 8
  store ptr %1, ptr %7, align 8
  store ptr %2, ptr %8, align 8
  store i32 %3, ptr %9, align 4
  %10 = load i32, ptr %9, align 4
  %11 = and i32 %10, 16
  %12 = icmp ne i32 %11, 0
  br i1 %12, label %13, label %20

13:                                               ; preds = %4
  %14 = load ptr, ptr %7, align 8
  %15 = load ptr, ptr %6, align 8
  %16 = load ptr, ptr %8, align 8
  %17 = call zeroext i1 %14(ptr noundef %15, ptr noundef %16)
  br i1 %17, label %18, label %19

18:                                               ; preds = %13
  store i1 true, ptr %5, align 1
  br label %123

19:                                               ; preds = %13
  br label %20

20:                                               ; preds = %19, %4
  %21 = load ptr, ptr %6, align 8
  %22 = getelementptr inbounds nuw %struct.RangeTblEntry, ptr %21, i32 0, i32 3
  %23 = load i32, ptr %22, align 8
  switch i32 %23, label %103 [
    i32 0, label %24
    i32 1, label %33
    i32 2, label %47
    i32 3, label %61
    i32 4, label %70
    i32 5, label %79
    i32 6, label %88
    i32 7, label %88
    i32 8, label %88
    i32 9, label %89
  ]

24:                                               ; preds = %20
  %25 = load ptr, ptr %7, align 8
  %26 = load ptr, ptr %6, align 8
  %27 = getelementptr inbounds nuw %struct.RangeTblEntry, ptr %26, i32 0, i32 9
  %28 = load ptr, ptr %27, align 8
  %29 = load ptr, ptr %8, align 8
  %30 = call zeroext i1 %25(ptr noundef %28, ptr noundef %29)
  br i1 %30, label %31, label %32

31:                                               ; preds = %24
  store i1 true, ptr %5, align 1
  br label %123

32:                                               ; preds = %24
  br label %103

33:                                               ; preds = %20
  %34 = load i32, ptr %9, align 4
  %35 = and i32 %34, 1
  %36 = icmp ne i32 %35, 0
  br i1 %36, label %46, label %37

37:                                               ; preds = %33
  %38 = load ptr, ptr %7, align 8
  %39 = load ptr, ptr %6, align 8
  %40 = getelementptr inbounds nuw %struct.RangeTblEntry, ptr %39, i32 0, i32 10
  %41 = load ptr, ptr %40, align 8
  %42 = load ptr, ptr %8, align 8
  %43 = call zeroext i1 %38(ptr noundef %41, ptr noundef %42)
  br i1 %43, label %44, label %45

44:                                               ; preds = %37
  store i1 true, ptr %5, align 1
  br label %123

45:                                               ; preds = %37
  br label %46

46:                                               ; preds = %45, %33
  br label %103

47:                                               ; preds = %20
  %48 = load i32, ptr %9, align 4
  %49 = and i32 %48, 4
  %50 = icmp ne i32 %49, 0
  br i1 %50, label %60, label %51

51:                                               ; preds = %47
  %52 = load ptr, ptr %7, align 8
  %53 = load ptr, ptr %6, align 8
  %54 = getelementptr inbounds nuw %struct.RangeTblEntry, ptr %53, i32 0, i32 14
  %55 = load ptr, ptr %54, align 8
  %56 = load ptr, ptr %8, align 8
  %57 = call zeroext i1 %52(ptr noundef %55, ptr noundef %56)
  br i1 %57, label %58, label %59

58:                                               ; preds = %51
  store i1 true, ptr %5, align 1
  br label %123

59:                                               ; preds = %51
  br label %60

60:                                               ; preds = %59, %47
  br label %103

61:                                               ; preds = %20
  %62 = load ptr, ptr %7, align 8
  %63 = load ptr, ptr %6, align 8
  %64 = getelementptr inbounds nuw %struct.RangeTblEntry, ptr %63, i32 0, i32 18
  %65 = load ptr, ptr %64, align 8
  %66 = load ptr, ptr %8, align 8
  %67 = call zeroext i1 %62(ptr noundef %65, ptr noundef %66)
  br i1 %67, label %68, label %69

68:                                               ; preds = %61
  store i1 true, ptr %5, align 1
  br label %123

69:                                               ; preds = %61
  br label %103

70:                                               ; preds = %20
  %71 = load ptr, ptr %7, align 8
  %72 = load ptr, ptr %6, align 8
  %73 = getelementptr inbounds nuw %struct.RangeTblEntry, ptr %72, i32 0, i32 20
  %74 = load ptr, ptr %73, align 8
  %75 = load ptr, ptr %8, align 8
  %76 = call zeroext i1 %71(ptr noundef %74, ptr noundef %75)
  br i1 %76, label %77, label %78

77:                                               ; preds = %70
  store i1 true, ptr %5, align 1
  br label %123

78:                                               ; preds = %70
  br label %103

79:                                               ; preds = %20
  %80 = load ptr, ptr %7, align 8
  %81 = load ptr, ptr %6, align 8
  %82 = getelementptr inbounds nuw %struct.RangeTblEntry, ptr %81, i32 0, i32 21
  %83 = load ptr, ptr %82, align 8
  %84 = load ptr, ptr %8, align 8
  %85 = call zeroext i1 %80(ptr noundef %83, ptr noundef %84)
  br i1 %85, label %86, label %87

86:                                               ; preds = %79
  store i1 true, ptr %5, align 1
  br label %123

87:                                               ; preds = %79
  br label %103

88:                                               ; preds = %20, %20, %20
  br label %103

89:                                               ; preds = %20
  %90 = load i32, ptr %9, align 4
  %91 = and i32 %90, 256
  %92 = icmp ne i32 %91, 0
  br i1 %92, label %102, label %93

93:                                               ; preds = %89
  %94 = load ptr, ptr %7, align 8
  %95 = load ptr, ptr %6, align 8
  %96 = getelementptr inbounds nuw %struct.RangeTblEntry, ptr %95, i32 0, i32 30
  %97 = load ptr, ptr %96, align 8
  %98 = load ptr, ptr %8, align 8
  %99 = call zeroext i1 %94(ptr noundef %97, ptr noundef %98)
  br i1 %99, label %100, label %101

100:                                              ; preds = %93
  store i1 true, ptr %5, align 1
  br label %123

101:                                              ; preds = %93
  br label %102

102:                                              ; preds = %101, %89
  br label %103

103:                                              ; preds = %20, %102, %88, %87, %78, %69, %60, %46, %32
  %104 = load ptr, ptr %7, align 8
  %105 = load ptr, ptr %6, align 8
  %106 = getelementptr inbounds nuw %struct.RangeTblEntry, ptr %105, i32 0, i32 33
  %107 = load ptr, ptr %106, align 8
  %108 = load ptr, ptr %8, align 8
  %109 = call zeroext i1 %104(ptr noundef %107, ptr noundef %108)
  br i1 %109, label %110, label %111

110:                                              ; preds = %103
  store i1 true, ptr %5, align 1
  br label %123

111:                                              ; preds = %103
  %112 = load i32, ptr %9, align 4
  %113 = and i32 %112, 32
  %114 = icmp ne i32 %113, 0
  br i1 %114, label %115, label %122

115:                                              ; preds = %111
  %116 = load ptr, ptr %7, align 8
  %117 = load ptr, ptr %6, align 8
  %118 = load ptr, ptr %8, align 8
  %119 = call zeroext i1 %116(ptr noundef %117, ptr noundef %118)
  br i1 %119, label %120, label %121

120:                                              ; preds = %115
  store i1 true, ptr %5, align 1
  br label %123

121:                                              ; preds = %115
  br label %122

122:                                              ; preds = %121, %111
  store i1 false, ptr %5, align 1
  br label %123

123:                                              ; preds = %122, %120, %110, %100, %86, %77, %68, %58, %44, %31, %18
  %124 = load i1, ptr %5, align 1
  ret i1 %124
}