; Function Attrs: nounwind uwtable
define dso_local noundef zeroext i1 @range_table_entry_walker_impl(ptr noundef %0, ptr noundef readonly captures(none) %1, ptr noundef %2, i32 noundef %3) local_unnamed_addr #0 {
  %5 = and i32 %3, 16
  %.not = icmp eq i32 %5, 0
  br i1 %.not, label %8, label %6

6:                                                ; preds = %4
  %7 = tail call zeroext i1 %1(ptr noundef %0, ptr noundef %2) #13
  br i1 %7, label %54, label %8

8:                                                ; preds = %6, %4
  %9 = getelementptr inbounds nuw i8, ptr %0, i64 24
  %10 = load i32, ptr %9, align 8
  switch i32 %10, label %45 [
    i32 0, label %11
    i32 1, label %15
    i32 2, label %21
    i32 3, label %27
    i32 4, label %31
    i32 5, label %35
    i32 9, label %39
  ]

11:                                               ; preds = %8
  %12 = getelementptr inbounds nuw i8, ptr %0, i64 48
  %13 = load ptr, ptr %12, align 8
  %14 = tail call zeroext i1 %1(ptr noundef %13, ptr noundef %2) #13
  br i1 %14, label %54, label %45

15:                                               ; preds = %8
  %16 = and i32 %3, 1
  %.not38 = icmp eq i32 %16, 0
  br i1 %.not38, label %17, label %45

17:                                               ; preds = %15
  %18 = getelementptr inbounds nuw i8, ptr %0, i64 56
  %19 = load ptr, ptr %18, align 8
  %20 = tail call zeroext i1 %1(ptr noundef %19, ptr noundef %2) #13
  br i1 %20, label %54, label %45

21:                                               ; preds = %8
  %22 = and i32 %3, 4
  %.not37 = icmp eq i32 %22, 0
  br i1 %.not37, label %23, label %45

23:                                               ; preds = %21
  %24 = getelementptr inbounds nuw i8, ptr %0, i64 80
  %25 = load ptr, ptr %24, align 8
  %26 = tail call zeroext i1 %1(ptr noundef %25, ptr noundef %2) #13
  br i1 %26, label %54, label %45

27:                                               ; preds = %8
  %28 = getelementptr inbounds nuw i8, ptr %0, i64 112
  %29 = load ptr, ptr %28, align 8
  %30 = tail call zeroext i1 %1(ptr noundef %29, ptr noundef %2) #13
  br i1 %30, label %54, label %45

31:                                               ; preds = %8
  %32 = getelementptr inbounds nuw i8, ptr %0, i64 128
  %33 = load ptr, ptr %32, align 8
  %34 = tail call zeroext i1 %1(ptr noundef %33, ptr noundef %2) #13
  br i1 %34, label %54, label %45

35:                                               ; preds = %8
  %36 = getelementptr inbounds nuw i8, ptr %0, i64 136
  %37 = load ptr, ptr %36, align 8
  %38 = tail call zeroext i1 %1(ptr noundef %37, ptr noundef %2) #13
  br i1 %38, label %54, label %45

39:                                               ; preds = %8
  %40 = and i32 %3, 256
  %.not36 = icmp eq i32 %40, 0
  br i1 %.not36, label %41, label %45

41:                                               ; preds = %39
  %42 = getelementptr inbounds nuw i8, ptr %0, i64 200
  %43 = load ptr, ptr %42, align 8
  %44 = tail call zeroext i1 %1(ptr noundef %43, ptr noundef %2) #13
  br i1 %44, label %54, label %45

45:                                               ; preds = %39, %41, %35, %31, %27, %21, %23, %15, %17, %11, %8
  %46 = getelementptr inbounds nuw i8, ptr %0, i64 216
  %47 = load ptr, ptr %46, align 8
  %48 = tail call zeroext i1 %1(ptr noundef %47, ptr noundef %2) #13
  br i1 %48, label %54, label %49

49:                                               ; preds = %45
  %50 = and i32 %3, 32
  %.not39 = icmp eq i32 %50, 0
  br i1 %.not39, label %53, label %51

51:                                               ; preds = %49
  %52 = tail call zeroext i1 %1(ptr noundef nonnull %0, ptr noundef %2) #13
  br i1 %52, label %54, label %53

53:                                               ; preds = %51, %49
  br label %54

54:                                               ; preds = %51, %45, %41, %35, %31, %27, %23, %17, %11, %6, %53
  %.0 = phi i1 [ false, %53 ], [ true, %6 ], [ true, %11 ], [ true, %17 ], [ true, %23 ], [ true, %27 ], [ true, %31 ], [ true, %35 ], [ true, %41 ], [ true, %45 ], [ true, %51 ]
  ret i1 %.0
}